ccopy_reg
_reconstructor
p0
(cauthors
Authors
p1
c__builtin__
object
p2
Ntp3
Rp4
(dp5
S'authors'
p6
(lp7
g0
(cauthor
Author
p8
g2
Ntp9
Rp10
(dp11
S'aid'
p12
I2
sS'aname'
p13
S'HunterThompson'
p14
sS'country'
p15
S'USA'
p16
sbag0
(g8
g2
Ntp17
Rp18
(dp19
g12
I3
sg13
S'StevenKing'
p20
sg15
S'USA'
p21
sbag0
(g8
g2
Ntp22
Rp23
(dp24
g12
I4
sg13
S'JackKerouac'
p25
sg15
S'USA'
p26
sbasb.