ccopy_reg
_reconstructor
p0
(cbooks
Books
p1
c__builtin__
object
p2
Ntp3
Rp4
(dp5
S'books'
p6
(lp7
g0
(cbook
Book
p8
g2
Ntp9
Rp10
(dp11
S'bpages'
p12
I135
sS'aid'
p13
I2
sS'bid'
p14
I1
sS'bname'
p15
S'FearAndLousing'
p16
sbag0
(g8
g2
Ntp17
Rp18
(dp19
g12
I300
sg13
I3
sg14
I2
sg15
S'Shining'
p20
sbasb.